target datalayout = "e-m:e-p270:32:32-p271:32:32-p272:64:64-i64:64-i128:128-f80:128-n8:16:32:64-S128"
target triple = "x86_64-pc-linux-gnu"

%struct.UriParserStateStructW = type { ptr, i32, ptr, ptr }
%struct.UriUriStructW = type { %struct.UriTextRangeStructW, %struct.UriTextRangeStructW, %struct.UriTextRangeStructW, %struct.UriHostDataStructW, %struct.UriTextRangeStructW, ptr, ptr, %struct.UriTextRangeStructW, %struct.UriTextRangeStructW, i32, i32, ptr }
%struct.UriHostDataStructW = type { ptr, ptr, %struct.UriTextRangeStructW }
%struct.UriTextRangeStructW = type { ptr, ptr }

; Function Attrs: inlinehint nounwind uwtable
define internal void @uriStopMallocW(ptr noundef %0, ptr noundef %1) #4 {
  %3 = alloca ptr, align 8
  %4 = alloca ptr, align 8
  store ptr %0, ptr %3, align 8, !tbaa !59
  store ptr %1, ptr %4, align 8, !tbaa !10
  %5 = load ptr, ptr %3, align 8, !tbaa !59
  %6 = getelementptr inbounds nuw %struct.UriParserStateStructW, ptr %5, i32 0, i32 0
  %7 = load ptr, ptr %6, align 8, !tbaa !63
  %8 = load ptr, ptr %4, align 8, !tbaa !10
  %9 = call i32 @uriFreeUriMembersMmW(ptr noundef %7, ptr noundef %8)
  %10 = load ptr, ptr %3, align 8, !tbaa !59
  %11 = getelementptr inbounds nuw %struct.UriParserStateStructW, ptr %10, i32 0, i32 2
  store ptr null, ptr %11, align 8, !tbaa !67
  %12 = load ptr, ptr %3, align 8, !tbaa !59
  %13 = getelementptr inbounds nuw %struct.UriParserStateStructW, ptr %12, i32 0, i32 1
  store i32 3, ptr %13, align 8, !tbaa !68
  ret void
}

; Function Attrs: nounwind uwtable
define internal ptr @uriParseOwnPortUserInfoW(ptr noundef %0, ptr noundef %1, ptr noundef %2, ptr noundef %3) #0 {
  %5 = alloca ptr, align 8
  %6 = alloca ptr, align 8
  %7 = alloca ptr, align 8
  %8 = alloca ptr, align 8
  %9 = alloca ptr, align 8
  %10 = alloca ptr, align 8
  %11 = alloca i32, align 4
  store ptr %0, ptr %6, align 8, !tbaa !59
  store ptr %1, ptr %7, align 8, !tbaa !61
  store ptr %2, ptr %8, align 8, !tbaa !61
  store ptr %3, ptr %9, align 8, !tbaa !10
  %12 = load ptr, ptr %7, align 8, !tbaa !61
  %13 = load ptr, ptr %8, align 8, !tbaa !61
  %14 = icmp uge ptr %12, %13
  br i1 %14, label %15, label %26

15:                                               ; preds = %4
  %16 = load ptr, ptr %6, align 8, !tbaa !59
  %17 = load ptr, ptr %7, align 8, !tbaa !61
  %18 = load ptr, ptr %9, align 8, !tbaa !10
  %19 = call i32 @uriOnExitOwnPortUserInfoW(ptr noundef %16, ptr noundef %17, ptr noundef %18)
  %20 = icmp ne i32 %19, 0
  br i1 %20, label %24, label %21

21:                                               ; preds = %15
  %22 = load ptr, ptr %6, align 8, !tbaa !59
  %23 = load ptr, ptr %9, align 8, !tbaa !10
  call void @uriStopMallocW(ptr noundef %22, ptr noundef %23)
  store ptr null, ptr %5, align 8
  br label %115

24:                                               ; preds = %15
  %25 = load ptr, ptr %8, align 8, !tbaa !61
  store ptr %25, ptr %5, align 8
  br label %115

26:                                               ; preds = %4
  %27 = load ptr, ptr %7, align 8, !tbaa !61
  %28 = load i32, ptr %27, align 4, !tbaa !21
  switch i32 %28, label %104 [
    i32 33, label %29
    i32 36, label %29
    i32 38, label %29
    i32 39, label %29
    i32 40, label %29
    i32 41, label %29
    i32 42, label %29
    i32 43, label %29
    i32 44, label %29
    i32 59, label %29
    i32 61, label %29
    i32 45, label %29
    i32 46, label %29
    i32 95, label %29
    i32 126, label %29
    i32 58, label %29
    i32 65, label %29
    i32 66, label %29
    i32 67, label %29
    i32 68, label %29
    i32 69, label %29
    i32 70, label %29
    i32 97, label %29
    i32 98, label %29
    i32 99, label %29
    i32 100, label %29
    i32 101, label %29
    i32 102, label %29
    i32 103, label %29
    i32 71, label %29
    i32 104, label %29
    i32 72, label %29
    i32 105, label %29
    i32 73, label %29
    i32 106, label %29
    i32 74, label %29
    i32 107, label %29
    i32 75, label %29
    i32 108, label %29
    i32 76, label %29
    i32 109, label %29
    i32 77, label %29
    i32 110, label %29
    i32 78, label %29
    i32 111, label %29
    i32 79, label %29
    i32 112, label %29
    i32 80, label %29
    i32 113, label %29
    i32 81, label %29
    i32 114, label %29
    i32 82, label %29
    i32 115, label %29
    i32 83, label %29
    i32 116, label %29
    i32 84, label %29
    i32 117, label %29
    i32 85, label %29
    i32 118, label %29
    i32 86, label %29
    i32 119, label %29
    i32 87, label %29
    i32 120, label %29
    i32 88, label %29
    i32 121, label %29
    i32 89, label %29
    i32 122, label %29
    i32 90, label %29
    i32 48, label %46
    i32 49, label %46
    i32 50, label %46
    i32 51, label %46
    i32 52, label %46
    i32 53, label %46
    i32 54, label %46
    i32 55, label %46
    i32 56, label %46
    i32 57, label %46
    i32 37, label %53
    i32 64, label %74
  ]

29:                                               ; preds = %26, %26, %26, %26, %26, %26, %26, %26, %26, %26, %26, %26, %26, %26, %26, %26, %26, %26, %26, %26, %26, %26, %26, %26, %26, %26, %26, %26, %26, %26, %26, %26, %26, %26, %26, %26, %26, %26, %26, %26, %26, %26, %26, %26, %26, %26, %26, %26, %26, %26, %26, %26, %26, %26, %26, %26, %26, %26, %26, %26, %26, %26, %26, %26, %26, %26, %26, %26
  %30 = load ptr, ptr %6, align 8, !tbaa !59
  %31 = getelementptr inbounds nuw %struct.UriParserStateStructW, ptr %30, i32 0, i32 0
  %32 = load ptr, ptr %31, align 8, !tbaa !63
  %33 = getelementptr inbounds nuw %struct.UriUriStructW, ptr %32, i32 0, i32 2
  %34 = getelementptr inbounds nuw %struct.UriTextRangeStructW, ptr %33, i32 0, i32 1
  store ptr null, ptr %34, align 8, !tbaa !83
  %35 = load ptr, ptr %6, align 8, !tbaa !59
  %36 = getelementptr inbounds nuw %struct.UriParserStateStructW, ptr %35, i32 0, i32 0
  %37 = load ptr, ptr %36, align 8, !tbaa !63
  %38 = getelementptr inbounds nuw %struct.UriUriStructW, ptr %37, i32 0, i32 4
  %39 = getelementptr inbounds nuw %struct.UriTextRangeStructW, ptr %38, i32 0, i32 0
  store ptr null, ptr %39, align 8, !tbaa !86
  %40 = load ptr, ptr %6, align 8, !tbaa !59
  %41 = load ptr, ptr %7, align 8, !tbaa !61
  %42 = getelementptr inbounds i32, ptr %41, i64 1
  %43 = load ptr, ptr %8, align 8, !tbaa !61
  %44 = load ptr, ptr %9, align 8, !tbaa !10
  %45 = call ptr @uriParseOwnUserInfoW(ptr noundef %40, ptr noundef %42, ptr noundef %43, ptr noundef %44)
  store ptr %45, ptr %5, align 8
  br label %115

46:                                               ; preds = %26, %26, %26, %26, %26, %26, %26, %26, %26, %26
  %47 = load ptr, ptr %6, align 8, !tbaa !59
  %48 = load ptr, ptr %7, align 8, !tbaa !61
  %49 = getelementptr inbounds i32, ptr %48, i64 1
  %50 = load ptr, ptr %8, align 8, !tbaa !61
  %51 = load ptr, ptr %9, align 8, !tbaa !10
  %52 = call ptr @uriParseOwnPortUserInfoW(ptr noundef %47, ptr noundef %49, ptr noundef %50, ptr noundef %51)
  store ptr %52, ptr %5, align 8
  br label %115

53:                                               ; preds = %26
  %54 = load ptr, ptr %6, align 8, !tbaa !59
  %55 = getelementptr inbounds nuw %struct.UriParserStateStructW, ptr %54, i32 0, i32 0
  %56 = load ptr, ptr %55, align 8, !tbaa !63
  %57 = getelementptr inbounds nuw %struct.UriUriStructW, ptr %56, i32 0, i32 4
  %58 = getelementptr inbounds nuw %struct.UriTextRangeStructW, ptr %57, i32 0, i32 0
  store ptr null, ptr %58, align 8, !tbaa !86
  call void @llvm.lifetime.start.p0(i64 8, ptr %10) #7
  %59 = load ptr, ptr %6, align 8, !tbaa !59
  %60 = load ptr, ptr %7, align 8, !tbaa !61
  %61 = load ptr, ptr %8, align 8, !tbaa !61
  %62 = load ptr, ptr %9, align 8, !tbaa !10
  %63 = call ptr @uriParsePctEncodedW(ptr noundef %59, ptr noundef %60, ptr noundef %61, ptr noundef %62)
  store ptr %63, ptr %10, align 8, !tbaa !61
  %64 = load ptr, ptr %10, align 8, !tbaa !61
  %65 = icmp eq ptr %64, null
  br i1 %65, label %66, label %67

66:                                               ; preds = %53
  store ptr null, ptr %5, align 8
  store i32 1, ptr %11, align 4
  br label %73

67:                                               ; preds = %53
  %68 = load ptr, ptr %6, align 8, !tbaa !59
  %69 = load ptr, ptr %10, align 8, !tbaa !61
  %70 = load ptr, ptr %8, align 8, !tbaa !61
  %71 = load ptr, ptr %9, align 8, !tbaa !10
  %72 = call ptr @uriParseOwnUserInfoW(ptr noundef %68, ptr noundef %69, ptr noundef %70, ptr noundef %71)
  store ptr %72, ptr %5, align 8
  store i32 1, ptr %11, align 4
  br label %73

73:                                               ; preds = %67, %66
  call void @llvm.lifetime.end.p0(i64 8, ptr %10) #7
  br label %115

74:                                               ; preds = %26
  %75 = load ptr, ptr %6, align 8, !tbaa !59
  %76 = getelementptr inbounds nuw %struct.UriParserStateStructW, ptr %75, i32 0, i32 0
  %77 = load ptr, ptr %76, align 8, !tbaa !63
  %78 = getelementptr inbounds nuw %struct.UriUriStructW, ptr %77, i32 0, i32 2
  %79 = getelementptr inbounds nuw %struct.UriTextRangeStructW, ptr %78, i32 0, i32 1
  store ptr null, ptr %79, align 8, !tbaa !83
  %80 = load ptr, ptr %6, align 8, !tbaa !59
  %81 = getelementptr inbounds nuw %struct.UriParserStateStructW, ptr %80, i32 0, i32 0
  %82 = load ptr, ptr %81, align 8, !tbaa !63
  %83 = getelementptr inbounds nuw %struct.UriUriStructW, ptr %82, i32 0, i32 4
  %84 = getelementptr inbounds nuw %struct.UriTextRangeStructW, ptr %83, i32 0, i32 0
  store ptr null, ptr %84, align 8, !tbaa !86
  %85 = load ptr, ptr %7, align 8, !tbaa !61
  %86 = load ptr, ptr %6, align 8, !tbaa !59
  %87 = getelementptr inbounds nuw %struct.UriParserStateStructW, ptr %86, i32 0, i32 0
  %88 = load ptr, ptr %87, align 8, !tbaa !63
  %89 = getelementptr inbounds nuw %struct.UriUriStructW, ptr %88, i32 0, i32 1
  %90 = getelementptr inbounds nuw %struct.UriTextRangeStructW, ptr %89, i32 0, i32 1
  store ptr %85, ptr %90, align 8, !tbaa !79
  %91 = load ptr, ptr %7, align 8, !tbaa !61
  %92 = getelementptr inbounds i32, ptr %91, i64 1
  %93 = load ptr, ptr %6, align 8, !tbaa !59
  %94 = getelementptr inbounds nuw %struct.UriParserStateStructW, ptr %93, i32 0, i32 0
  %95 = load ptr, ptr %94, align 8, !tbaa !63
  %96 = getelementptr inbounds nuw %struct.UriUriStructW, ptr %95, i32 0, i32 2
  %97 = getelementptr inbounds nuw %struct.UriTextRangeStructW, ptr %96, i32 0, i32 0
  store ptr %92, ptr %97, align 8, !tbaa !82
  %98 = load ptr, ptr %6, align 8, !tbaa !59
  %99 = load ptr, ptr %7, align 8, !tbaa !61
  %100 = getelementptr inbounds i32, ptr %99, i64 1
  %101 = load ptr, ptr %8, align 8, !tbaa !61
  %102 = load ptr, ptr %9, align 8, !tbaa !10
  %103 = call ptr @uriParseOwnHostW(ptr noundef %98, ptr noundef %100, ptr noundef %101, ptr noundef %102)
  store ptr %103, ptr %5, align 8
  br label %115

104:                                              ; preds = %26
  %105 = load ptr, ptr %6, align 8, !tbaa !59
  %106 = load ptr, ptr %7, align 8, !tbaa !61
  %107 = load ptr, ptr %9, align 8, !tbaa !10
  %108 = call i32 @uriOnExitOwnPortUserInfoW(ptr noundef %105, ptr noundef %106, ptr noundef %107)
  %109 = icmp ne i32 %108, 0
  br i1 %109, label %113, label %110

110:                                              ; preds = %104
  %111 = load ptr, ptr %6, align 8, !tbaa !59
  %112 = load ptr, ptr %9, align 8, !tbaa !10
  call void @uriStopMallocW(ptr noundef %111, ptr noundef %112)
  store ptr null, ptr %5, align 8
  br label %115

113:                                              ; preds = %104
  %114 = load ptr, ptr %7, align 8, !tbaa !61
  store ptr %114, ptr %5, align 8
  br label %115

115:                                              ; preds = %113, %110, %74, %73, %46, %29, %24, %21
  %116 = load ptr, ptr %5, align 8
  ret ptr %116
}