; Function Attrs: nounwind uwtable
define internal fastcc ptr @uriParseOwnPortUserInfoW(ptr noundef nonnull %0, ptr noundef nonnull %1, ptr noundef nonnull %2, ptr noundef %3) unnamed_addr #0 {
  %.not62 = icmp ult ptr %1, %2
  br i1 %.not62, label %.lr.ph, label %tailrecurse._crit_edge

tailrecurse._crit_edge:                           ; preds = %tailrecurse, %4
  %.tr55.lcssa = phi ptr [ %1, %4 ], [ %39, %tailrecurse ]
  %5 = load ptr, ptr %0, align 8, !tbaa !51
  %6 = getelementptr inbounds nuw i8, ptr %5, i64 16
  %7 = load ptr, ptr %6, align 8, !tbaa !72
  %8 = getelementptr inbounds nuw i8, ptr %5, i64 32
  store ptr %7, ptr %8, align 8, !tbaa !76
  store ptr null, ptr %6, align 8, !tbaa !72
  %9 = getelementptr inbounds nuw i8, ptr %5, i64 88
  store ptr %.tr55.lcssa, ptr %9, align 8, !tbaa !81
  %10 = load ptr, ptr %3, align 8, !tbaa !49
  %11 = tail call ptr %10(ptr noundef nonnull %3, i64 noundef 4) #7
  %12 = load ptr, ptr %0, align 8, !tbaa !51
  %13 = getelementptr inbounds nuw i8, ptr %12, i64 48
  store ptr %11, ptr %13, align 8, !tbaa !77
  %14 = icmp eq ptr %11, null
  br i1 %14, label %uriOnExitOwnPortUserInfoW.exit, label %15

15:                                               ; preds = %tailrecurse._crit_edge
  %16 = getelementptr inbounds nuw i8, ptr %12, i64 32
  %17 = load ptr, ptr %16, align 8, !tbaa !76
  %18 = getelementptr inbounds nuw i8, ptr %12, i64 40
  %19 = load ptr, ptr %18, align 8, !tbaa !79
  %20 = tail call i32 @uriParseIpFourAddressW(ptr noundef nonnull %11, ptr noundef %17, ptr noundef %19) #7
  %.not.i = icmp eq i32 %20, 0
  br i1 %.not.i, label %uriOnExitOwnPortUserInfoW.exit.thread, label %21

21:                                               ; preds = %15
  %22 = getelementptr inbounds nuw i8, ptr %3, i64 32
  %23 = load ptr, ptr %22, align 8, !tbaa !32
  %24 = load ptr, ptr %0, align 8, !tbaa !51
  %25 = getelementptr inbounds nuw i8, ptr %24, i64 48
  %26 = load ptr, ptr %25, align 8, !tbaa !77
  tail call void %23(ptr noundef nonnull %3, ptr noundef %26) #7
  %27 = load ptr, ptr %0, align 8, !tbaa !51
  %28 = getelementptr inbounds nuw i8, ptr %27, i64 48
  store ptr null, ptr %28, align 8, !tbaa !77
  br label %uriOnExitOwnPortUserInfoW.exit.thread

uriOnExitOwnPortUserInfoW.exit:                   ; preds = %tailrecurse._crit_edge
  %29 = tail call i32 @uriFreeUriMembersMmW(ptr noundef nonnull %12, ptr noundef nonnull %3)
  %30 = getelementptr inbounds nuw i8, ptr %0, i64 16
  store ptr null, ptr %30, align 8, !tbaa !68
  %31 = getelementptr inbounds nuw i8, ptr %0, i64 8
  store i32 3, ptr %31, align 8, !tbaa !69
  br label %uriOnExitOwnPortUserInfoW.exit.thread

.lr.ph:                                           ; preds = %4, %tailrecurse
  %.tr5563 = phi ptr [ %39, %tailrecurse ], [ %1, %4 ]
  %32 = load i32, ptr %.tr5563, align 4, !tbaa !55
  switch i32 %32, label %55 [
    i32 33, label %33
    i32 36, label %33
    i32 38, label %33
    i32 39, label %33
    i32 40, label %33
    i32 41, label %33
    i32 42, label %33
    i32 43, label %33
    i32 44, label %33
    i32 59, label %33
    i32 61, label %33
    i32 45, label %33
    i32 46, label %33
    i32 95, label %33
    i32 126, label %33
    i32 58, label %33
    i32 65, label %33
    i32 66, label %33
    i32 67, label %33
    i32 68, label %33
    i32 69, label %33
    i32 70, label %33
    i32 97, label %33
    i32 98, label %33
    i32 99, label %33
    i32 100, label %33
    i32 101, label %33
    i32 102, label %33
    i32 103, label %33
    i32 71, label %33
    i32 104, label %33
    i32 72, label %33
    i32 105, label %33
    i32 73, label %33
    i32 106, label %33
    i32 74, label %33
    i32 107, label %33
    i32 75, label %33
    i32 108, label %33
    i32 76, label %33
    i32 109, label %33
    i32 77, label %33
    i32 110, label %33
    i32 78, label %33
    i32 111, label %33
    i32 79, label %33
    i32 112, label %33
    i32 80, label %33
    i32 113, label %33
    i32 81, label %33
    i32 114, label %33
    i32 82, label %33
    i32 115, label %33
    i32 83, label %33
    i32 116, label %33
    i32 84, label %33
    i32 117, label %33
    i32 85, label %33
    i32 118, label %33
    i32 86, label %33
    i32 119, label %33
    i32 87, label %33
    i32 120, label %33
    i32 88, label %33
    i32 121, label %33
    i32 89, label %33
    i32 122, label %33
    i32 90, label %33
    i32 48, label %tailrecurse
    i32 49, label %tailrecurse
    i32 50, label %tailrecurse
    i32 51, label %tailrecurse
    i32 52, label %tailrecurse
    i32 53, label %tailrecurse
    i32 54, label %tailrecurse
    i32 55, label %tailrecurse
    i32 56, label %tailrecurse
    i32 57, label %tailrecurse
    i32 37, label %40
    i32 64, label %47
  ]

33:                                               ; preds = %.lr.ph, %.lr.ph, %.lr.ph, %.lr.ph, %.lr.ph, %.lr.ph, %.lr.ph, %.lr.ph, %.lr.ph, %.lr.ph, %.lr.ph, %.lr.ph, %.lr.ph, %.lr.ph, %.lr.ph, %.lr.ph, %.lr.ph, %.lr.ph, %.lr.ph, %.lr.ph, %.lr.ph, %.lr.ph, %.lr.ph, %.lr.ph, %.lr.ph, %.lr.ph, %.lr.ph, %.lr.ph, %.lr.ph, %.lr.ph, %.lr.ph, %.lr.ph, %.lr.ph, %.lr.ph, %.lr.ph, %.lr.ph, %.lr.ph, %.lr.ph, %.lr.ph, %.lr.ph, %.lr.ph, %.lr.ph, %.lr.ph, %.lr.ph, %.lr.ph, %.lr.ph, %.lr.ph, %.lr.ph, %.lr.ph, %.lr.ph, %.lr.ph, %.lr.ph, %.lr.ph, %.lr.ph, %.lr.ph, %.lr.ph, %.lr.ph, %.lr.ph, %.lr.ph, %.lr.ph, %.lr.ph, %.lr.ph, %.lr.ph, %.lr.ph, %.lr.ph, %.lr.ph, %.lr.ph, %.lr.ph
  %34 = load ptr, ptr %0, align 8, !tbaa !51
  %35 = getelementptr inbounds nuw i8, ptr %34, i64 40
  store ptr null, ptr %35, align 8, !tbaa !79
  %36 = getelementptr inbounds nuw i8, ptr %34, i64 80
  store ptr null, ptr %36, align 8, !tbaa !80
  %37 = getelementptr inbounds nuw i8, ptr %.tr5563, i64 4
  %38 = tail call fastcc ptr @uriParseOwnUserInfoW(ptr noundef %0, ptr noundef %37, ptr noundef %2, ptr noundef %3)
  br label %uriOnExitOwnPortUserInfoW.exit.thread

tailrecurse:                                      ; preds = %.lr.ph, %.lr.ph, %.lr.ph, %.lr.ph, %.lr.ph, %.lr.ph, %.lr.ph, %.lr.ph, %.lr.ph, %.lr.ph
  %39 = getelementptr inbounds nuw i8, ptr %.tr5563, i64 4
  %.not = icmp ult ptr %39, %2
  br i1 %.not, label %.lr.ph, label %tailrecurse._crit_edge

40:                                               ; preds = %.lr.ph
  %41 = load ptr, ptr %0, align 8, !tbaa !51
  %42 = getelementptr inbounds nuw i8, ptr %41, i64 80
  store ptr null, ptr %42, align 8, !tbaa !80
  %43 = tail call fastcc ptr @uriParsePctEncodedW(ptr noundef %0, ptr noundef %.tr5563, ptr noundef %2, ptr noundef %3)
  %44 = icmp eq ptr %43, null
  br i1 %44, label %uriOnExitOwnPortUserInfoW.exit.thread, label %45

45:                                               ; preds = %40
  %46 = tail call fastcc ptr @uriParseOwnUserInfoW(ptr noundef %0, ptr noundef %43, ptr noundef %2, ptr noundef %3)
  br label %uriOnExitOwnPortUserInfoW.exit.thread

47:                                               ; preds = %.lr.ph
  %48 = load ptr, ptr %0, align 8, !tbaa !51
  %49 = getelementptr inbounds nuw i8, ptr %48, i64 40
  store ptr null, ptr %49, align 8, !tbaa !79
  %50 = getelementptr inbounds nuw i8, ptr %48, i64 80
  store ptr null, ptr %50, align 8, !tbaa !80
  %51 = getelementptr inbounds nuw i8, ptr %48, i64 24
  store ptr %.tr5563, ptr %51, align 8, !tbaa !73
  %52 = getelementptr inbounds nuw i8, ptr %.tr5563, i64 4
  %53 = getelementptr inbounds nuw i8, ptr %48, i64 32
  store ptr %52, ptr %53, align 8, !tbaa !76
  %54 = tail call fastcc ptr @uriParseOwnHostW(ptr noundef %0, ptr noundef %52, ptr noundef %2, ptr noundef %3)
  br label %uriOnExitOwnPortUserInfoW.exit.thread

55:                                               ; preds = %.lr.ph
  %56 = tail call fastcc i32 @uriOnExitOwnPortUserInfoW(ptr noundef %0, ptr noundef %.tr5563, ptr noundef %3)
  %.not51 = icmp eq i32 %56, 0
  br i1 %.not51, label %57, label %uriOnExitOwnPortUserInfoW.exit.thread

57:                                               ; preds = %55
  %58 = load ptr, ptr %0, align 8, !tbaa !51
  %59 = tail call i32 @uriFreeUriMembersMmW(ptr noundef %58, ptr noundef %3)
  %60 = getelementptr inbounds nuw i8, ptr %0, i64 16
  store ptr null, ptr %60, align 8, !tbaa !68
  %61 = getelementptr inbounds nuw i8, ptr %0, i64 8
  store i32 3, ptr %61, align 8, !tbaa !69
  br label %uriOnExitOwnPortUserInfoW.exit.thread

uriOnExitOwnPortUserInfoW.exit.thread:            ; preds = %15, %21, %55, %45, %40, %57, %47, %33, %uriOnExitOwnPortUserInfoW.exit
  %.0 = phi ptr [ null, %uriOnExitOwnPortUserInfoW.exit ], [ null, %57 ], [ %54, %47 ], [ %38, %33 ], [ %46, %45 ], [ null, %40 ], [ %.tr5563, %55 ], [ %2, %21 ], [ %2, %15 ]
  ret ptr %.0
}